; Function Attrs: mustprogress uwtable
define void @_ZN4LIEF2PE12ResourceNodeC2Ev(ptr noundef nonnull align 8 dereferenceable(76) %0) unnamed_addr #3 align 2 personality ptr @__gxx_personality_v0 {
  tail call void @_ZN4LIEF6ObjectC2Ev(ptr noundef nonnull align 8 dereferenceable(8) %0)
  store ptr getelementptr inbounds ({ [8 x ptr] }, ptr @_ZTVN4LIEF2PE12ResourceNodeE, i64 0, i32 0, i64 2), ptr %0, align 8
  %2 = getelementptr inbounds i8, ptr %0, i64 8
  store i32 0, ptr %2, align 8
  %3 = getelementptr inbounds i8, ptr %0, i64 12
  store i32 0, ptr %3, align 4
  %4 = getelementptr inbounds i8, ptr %0, i64 16
  %5 = getelementptr inbounds i8, ptr %0, i64 32
  store ptr %5, ptr %4, align 8
  %6 = getelementptr inbounds i8, ptr %0, i64 24
  store i64 0, ptr %6, align 8
  store i16 0, ptr %5, align 8
  %7 = getelementptr inbounds i8, ptr %0, i64 48
  tail call void @llvm.memset.p0.i64(ptr noundef nonnull align 8 dereferenceable(28) %7, i8 0, i64 28, i1 false)
  ret void
}